target datalayout = "e-m:e-p270:32:32-p271:32:32-p272:64:64-i64:64-i128:128-f80:128-n8:16:32:64-S128"
target triple = "x86_64-pc-linux-gnu"

%struct.AVCodecContext = type { ptr, i32, i32, ptr, i32, i32, ptr, ptr, ptr, i64, i32, i32, ptr, i32, %struct.AVRational, %struct.AVRational, %struct.AVRational, i32, i32, i32, i32, i32, %struct.AVRational, i32, i32, i32, i32, i32, i32, i32, i32, i32, i32, i32, ptr, ptr, i32, float, float, float, float, float, float, float, float, float, i32, i32, i32, i32, i32, i32, i32, i32, i32, i32, i32, i32, ptr, ptr, ptr, i32, i32, i32, i32, i32, i32, i32, i32, i32, i32, %struct.AVChannelLayout, i32, i32, i32, i32, i32, i32, i32, i32, ptr, i32, i32, i32, float, float, i32, i32, i32, i32, i32, ptr, i64, i64, float, float, i32, i32, ptr, ptr, i32, i32, i32, i32, i32, ptr, ptr, ptr, ptr, i32, i32, [8 x i64], i32, i32, i32, i32, i32, i32, i32, ptr, ptr, i32, i32, i32, i32, i32, i32, i32, i32, i32, i32, ptr, ptr, i32, i32, ptr, ptr, ptr, ptr, i32, i32, i64, i32, i32, i64, ptr, i64, ptr, i32, ptr, i32 }
%struct.AVRational = type { i32, i32 }
%struct.AVChannelLayout = type { i32, i32, %union.anon.0, ptr }
%union.anon.0 = type { i64 }
%struct.LclEncContext = type { ptr, i32, i32, i32, %struct.FFZStream }
%struct.FFZStream = type { %struct.z_stream_s, i32 }
%struct.z_stream_s = type { ptr, i32, i64, ptr, i32, i64, ptr, ptr, ptr, ptr, ptr, i32, i64, i64 }

@.str.2 = private unnamed_addr constant [30 x i8] c"Assertion %s failed at %s:%d\0A\00", align 1
@.str.3 = private unnamed_addr constant [30 x i8] c"avctx->width && avctx->height\00", align 1
@.str.4 = private unnamed_addr constant [20 x i8] c"libavcodec/lclenc.c\00", align 1

; Function Attrs: alwaysinline nounwind willreturn memory(none) uwtable
define internal i32 @av_clip_c(i32 noundef %0, i32 noundef %1, i32 noundef %2) #5 {
  %4 = alloca i32, align 4
  %5 = alloca i32, align 4
  %6 = alloca i32, align 4
  %7 = alloca i32, align 4
  store i32 %0, ptr %5, align 4, !tbaa !53
  store i32 %1, ptr %6, align 4, !tbaa !53
  store i32 %2, ptr %7, align 4, !tbaa !53
  %8 = load i32, ptr %5, align 4, !tbaa !53
  %9 = load i32, ptr %6, align 4, !tbaa !53
  %10 = icmp slt i32 %8, %9
  br i1 %10, label %11, label %13

11:                                               ; preds = %3
  %12 = load i32, ptr %6, align 4, !tbaa !53
  store i32 %12, ptr %4, align 4
  br label %21

13:                                               ; preds = %3
  %14 = load i32, ptr %5, align 4, !tbaa !53
  %15 = load i32, ptr %7, align 4, !tbaa !53
  %16 = icmp sgt i32 %14, %15
  br i1 %16, label %17, label %19

17:                                               ; preds = %13
  %18 = load i32, ptr %7, align 4, !tbaa !53
  store i32 %18, ptr %4, align 4
  br label %21

19:                                               ; preds = %13
  %20 = load i32, ptr %5, align 4, !tbaa !53
  store i32 %20, ptr %4, align 4
  br label %21

21:                                               ; preds = %19, %17, %11
  %22 = load i32, ptr %4, align 4
  ret i32 %22
}

; Function Attrs: cold nounwind optsize uwtable
define internal i32 @encode_init(ptr noundef %0) #0 {
  %2 = alloca i32, align 4
  %3 = alloca ptr, align 8
  %4 = alloca ptr, align 8
  %5 = alloca i32, align 4
  store ptr %0, ptr %3, align 8, !tbaa !4
  call void @llvm.lifetime.start.p0(i64 8, ptr %4) #6
  %6 = load ptr, ptr %3, align 8, !tbaa !4
  %7 = getelementptr inbounds nuw %struct.AVCodecContext, ptr %6, i32 0, i32 6
  %8 = load ptr, ptr %7, align 8, !tbaa !9
  store ptr %8, ptr %4, align 8, !tbaa !29
  %9 = load ptr, ptr %3, align 8, !tbaa !4
  %10 = load ptr, ptr %4, align 8, !tbaa !29
  %11 = getelementptr inbounds nuw %struct.LclEncContext, ptr %10, i32 0, i32 0
  store ptr %9, ptr %11, align 8, !tbaa !31
  br label %12

12:                                               ; preds = %1
  %13 = load ptr, ptr %3, align 8, !tbaa !4
  %14 = getelementptr inbounds nuw %struct.AVCodecContext, ptr %13, i32 0, i32 18
  %15 = load i32, ptr %14, align 8, !tbaa !36
  %16 = icmp ne i32 %15, 0
  br i1 %16, label %17, label %22

17:                                               ; preds = %12
  %18 = load ptr, ptr %3, align 8, !tbaa !4
  %19 = getelementptr inbounds nuw %struct.AVCodecContext, ptr %18, i32 0, i32 19
  %20 = load i32, ptr %19, align 4, !tbaa !37
  %21 = icmp ne i32 %20, 0
  br i1 %21, label %23, label %22

22:                                               ; preds = %17, %12
  call void (ptr, i32, ptr, ...) @av_log(ptr noundef null, i32 noundef 0, ptr noundef @.str.2, ptr noundef @.str.3, ptr noundef @.str.4, i32 noundef 119)
  call void @abort() #7
  unreachable

23:                                               ; preds = %17
  br label %24

24:                                               ; preds = %23
  br label %25

25:                                               ; preds = %24
  %26 = call noalias ptr @av_mallocz(i64 noundef 72)
  %27 = load ptr, ptr %3, align 8, !tbaa !4
  %28 = getelementptr inbounds nuw %struct.AVCodecContext, ptr %27, i32 0, i32 12
  store ptr %26, ptr %28, align 8, !tbaa !38
  %29 = load ptr, ptr %3, align 8, !tbaa !4
  %30 = getelementptr inbounds nuw %struct.AVCodecContext, ptr %29, i32 0, i32 12
  %31 = load ptr, ptr %30, align 8, !tbaa !38
  %32 = icmp ne ptr %31, null
  br i1 %32, label %34, label %33

33:                                               ; preds = %25
  store i32 -12, ptr %2, align 4
  store i32 1, ptr %5, align 4
  br label %110

34:                                               ; preds = %25
  %35 = load ptr, ptr %3, align 8, !tbaa !4
  %36 = getelementptr inbounds nuw %struct.AVCodecContext, ptr %35, i32 0, i32 83
  %37 = load i32, ptr %36, align 8, !tbaa !39
  %38 = icmp eq i32 %37, -1
  br i1 %38, label %39, label %40

39:                                               ; preds = %34
  br label %45

40:                                               ; preds = %34
  %41 = load ptr, ptr %3, align 8, !tbaa !4
  %42 = getelementptr inbounds nuw %struct.AVCodecContext, ptr %41, i32 0, i32 83
  %43 = load i32, ptr %42, align 8, !tbaa !39
  %44 = call i32 @av_clip_c(i32 noundef %43, i32 noundef 0, i32 noundef 9) #8
  br label %45

45:                                               ; preds = %40, %39
  %46 = phi i32 [ -1, %39 ], [ %44, %40 ]
  %47 = load ptr, ptr %4, align 8, !tbaa !29
  %48 = getelementptr inbounds nuw %struct.LclEncContext, ptr %47, i32 0, i32 2
  store i32 %46, ptr %48, align 4, !tbaa !40
  %49 = load ptr, ptr %4, align 8, !tbaa !29
  %50 = getelementptr inbounds nuw %struct.LclEncContext, ptr %49, i32 0, i32 3
  store i32 0, ptr %50, align 8, !tbaa !41
  %51 = load ptr, ptr %4, align 8, !tbaa !29
  %52 = getelementptr inbounds nuw %struct.LclEncContext, ptr %51, i32 0, i32 1
  store i32 2, ptr %52, align 8, !tbaa !42
  %53 = load ptr, ptr %3, align 8, !tbaa !4
  %54 = getelementptr inbounds nuw %struct.AVCodecContext, ptr %53, i32 0, i32 114
  store i32 24, ptr %54, align 8, !tbaa !43
  %55 = load ptr, ptr %3, align 8, !tbaa !4
  %56 = getelementptr inbounds nuw %struct.AVCodecContext, ptr %55, i32 0, i32 12
  %57 = load ptr, ptr %56, align 8, !tbaa !38
  %58 = getelementptr inbounds i8, ptr %57, i64 0
  store i8 4, ptr %58, align 1, !tbaa !44
  %59 = load ptr, ptr %3, align 8, !tbaa !4
  %60 = getelementptr inbounds nuw %struct.AVCodecContext, ptr %59, i32 0, i32 12
  %61 = load ptr, ptr %60, align 8, !tbaa !38
  %62 = getelementptr inbounds i8, ptr %61, i64 1
  store i8 0, ptr %62, align 1, !tbaa !44
  %63 = load ptr, ptr %3, align 8, !tbaa !4
  %64 = getelementptr inbounds nuw %struct.AVCodecContext, ptr %63, i32 0, i32 12
  %65 = load ptr, ptr %64, align 8, !tbaa !38
  %66 = getelementptr inbounds i8, ptr %65, i64 2
  store i8 0, ptr %66, align 1, !tbaa !44
  %67 = load ptr, ptr %3, align 8, !tbaa !4
  %68 = getelementptr inbounds nuw %struct.AVCodecContext, ptr %67, i32 0, i32 12
  %69 = load ptr, ptr %68, align 8, !tbaa !38
  %70 = getelementptr inbounds i8, ptr %69, i64 3
  store i8 0, ptr %70, align 1, !tbaa !44
  %71 = load ptr, ptr %4, align 8, !tbaa !29
  %72 = getelementptr inbounds nuw %struct.LclEncContext, ptr %71, i32 0, i32 1
  %73 = load i32, ptr %72, align 8, !tbaa !42
  %74 = trunc i32 %73 to i8
  %75 = load ptr, ptr %3, align 8, !tbaa !4
  %76 = getelementptr inbounds nuw %struct.AVCodecContext, ptr %75, i32 0, i32 12
  %77 = load ptr, ptr %76, align 8, !tbaa !38
  %78 = getelementptr inbounds i8, ptr %77, i64 4
  store i8 %74, ptr %78, align 1, !tbaa !44
  %79 = load ptr, ptr %4, align 8, !tbaa !29
  %80 = getelementptr inbounds nuw %struct.LclEncContext, ptr %79, i32 0, i32 2
  %81 = load i32, ptr %80, align 4, !tbaa !40
  %82 = trunc i32 %81 to i8
  %83 = load ptr, ptr %3, align 8, !tbaa !4
  %84 = getelementptr inbounds nuw %struct.AVCodecContext, ptr %83, i32 0, i32 12
  %85 = load ptr, ptr %84, align 8, !tbaa !38
  %86 = getelementptr inbounds i8, ptr %85, i64 5
  store i8 %82, ptr %86, align 1, !tbaa !44
  %87 = load ptr, ptr %4, align 8, !tbaa !29
  %88 = getelementptr inbounds nuw %struct.LclEncContext, ptr %87, i32 0, i32 3
  %89 = load i32, ptr %88, align 8, !tbaa !41
  %90 = trunc i32 %89 to i8
  %91 = load ptr, ptr %3, align 8, !tbaa !4
  %92 = getelementptr inbounds nuw %struct.AVCodecContext, ptr %91, i32 0, i32 12
  %93 = load ptr, ptr %92, align 8, !tbaa !38
  %94 = getelementptr inbounds i8, ptr %93, i64 6
  store i8 %90, ptr %94, align 1, !tbaa !44
  %95 = load ptr, ptr %3, align 8, !tbaa !4
  %96 = getelementptr inbounds nuw %struct.AVCodecContext, ptr %95, i32 0, i32 12
  %97 = load ptr, ptr %96, align 8, !tbaa !38
  %98 = getelementptr inbounds i8, ptr %97, i64 7
  store i8 3, ptr %98, align 1, !tbaa !44
  %99 = load ptr, ptr %4, align 8, !tbaa !29
  %100 = getelementptr inbounds nuw %struct.LclEncContext, ptr %99, i32 0, i32 0
  %101 = load ptr, ptr %100, align 8, !tbaa !31
  %102 = getelementptr inbounds nuw %struct.AVCodecContext, ptr %101, i32 0, i32 13
  store i32 8, ptr %102, align 8, !tbaa !45
  %103 = load ptr, ptr %4, align 8, !tbaa !29
  %104 = getelementptr inbounds nuw %struct.LclEncContext, ptr %103, i32 0, i32 4
  %105 = load ptr, ptr %4, align 8, !tbaa !29
  %106 = getelementptr inbounds nuw %struct.LclEncContext, ptr %105, i32 0, i32 2
  %107 = load i32, ptr %106, align 4, !tbaa !40
  %108 = load ptr, ptr %3, align 8, !tbaa !4
  %109 = call i32 @ff_deflate_init(ptr noundef %104, i32 noundef %107, ptr noundef %108)
  store i32 %109, ptr %2, align 4
  store i32 1, ptr %5, align 4
  br label %110

110:                                              ; preds = %45, %33
  call void @llvm.lifetime.end.p0(i64 8, ptr %4) #6
  %111 = load i32, ptr %2, align 4
  ret i32 %111
}