; Function Attrs: cold nounwind optsize uwtable
define internal i32 @encode_init(ptr noundef %0) #0 {
  %2 = getelementptr inbounds nuw i8, ptr %0, i64 32
  %3 = load ptr, ptr %2, align 8, !tbaa !4
  store ptr %0, ptr %3, align 8, !tbaa !27
  %4 = getelementptr inbounds nuw i8, ptr %0, i64 112
  %5 = load i32, ptr %4, align 8, !tbaa !33
  %.not = icmp eq i32 %5, 0
  br i1 %.not, label %9, label %6

6:                                                ; preds = %1
  %7 = getelementptr inbounds nuw i8, ptr %0, i64 116
  %8 = load i32, ptr %7, align 4, !tbaa !34
  %.not29 = icmp eq i32 %8, 0
  br i1 %.not29, label %9, label %10

9:                                                ; preds = %6, %1
  tail call void (ptr, i32, ptr, ...) @av_log(ptr noundef null, i32 noundef 0, ptr noundef nonnull @.str.2, ptr noundef nonnull @.str.3, ptr noundef nonnull @.str.4, i32 noundef 119) #5
  tail call void @abort() #6
  unreachable

10:                                               ; preds = %6
  %11 = tail call noalias ptr @av_mallocz(i64 noundef 72) #5
  %12 = getelementptr inbounds nuw i8, ptr %0, i64 72
  store ptr %11, ptr %12, align 8, !tbaa !35
  %.not30 = icmp eq ptr %11, null
  br i1 %.not30, label %36, label %13

13:                                               ; preds = %10
  %14 = getelementptr inbounds nuw i8, ptr %0, i64 424
  %15 = load i32, ptr %14, align 8, !tbaa !36
  %16 = icmp eq i32 %15, -1
  %17 = tail call i32 @llvm.smax.i32(i32 %15, i32 0)
  %18 = tail call i32 @llvm.umin.i32(i32 %17, i32 9)
  %19 = select i1 %16, i32 -1, i32 %18
  %20 = getelementptr inbounds nuw i8, ptr %3, i64 12
  store i32 %19, ptr %20, align 4, !tbaa !37
  %21 = getelementptr inbounds nuw i8, ptr %3, i64 16
  store i32 0, ptr %21, align 8, !tbaa !38
  %22 = getelementptr inbounds nuw i8, ptr %3, i64 8
  store i32 2, ptr %22, align 8, !tbaa !39
  %23 = getelementptr inbounds nuw i8, ptr %0, i64 648
  store i32 24, ptr %23, align 8, !tbaa !40
  store i8 4, ptr %11, align 1, !tbaa !41
  %24 = getelementptr inbounds nuw i8, ptr %11, i64 1
  store i8 0, ptr %24, align 1, !tbaa !41
  %25 = getelementptr inbounds nuw i8, ptr %11, i64 2
  store i8 0, ptr %25, align 1, !tbaa !41
  %26 = getelementptr inbounds nuw i8, ptr %11, i64 3
  store i8 0, ptr %26, align 1, !tbaa !41
  %27 = getelementptr inbounds nuw i8, ptr %11, i64 4
  store i8 2, ptr %27, align 1, !tbaa !41
  %28 = trunc nsw i32 %19 to i8
  %29 = getelementptr inbounds nuw i8, ptr %11, i64 5
  store i8 %28, ptr %29, align 1, !tbaa !41
  %30 = getelementptr inbounds nuw i8, ptr %11, i64 6
  store i8 0, ptr %30, align 1, !tbaa !41
  %31 = getelementptr inbounds nuw i8, ptr %11, i64 7
  store i8 3, ptr %31, align 1, !tbaa !41
  %32 = load ptr, ptr %3, align 8, !tbaa !27
  %33 = getelementptr inbounds nuw i8, ptr %32, i64 80
  store i32 8, ptr %33, align 8, !tbaa !42
  %34 = getelementptr inbounds nuw i8, ptr %3, i64 24
  %35 = tail call i32 @ff_deflate_init(ptr noundef nonnull %34, i32 noundef %19, ptr noundef nonnull %0) #5
  br label %36

36:                                               ; preds = %10, %13
  %.0 = phi i32 [ %35, %13 ], [ -12, %10 ]
  ret i32 %.0
}